target datalayout = "e-m:e-p270:32:32-p271:32:32-p272:64:64-i64:64-i128:128-f80:128-n8:16:32:64-S128"
target triple = "x86_64-pc-linux-gnu"

%"class.icu_77::RegexCompile" = type { ptr, ptr, ptr, ptr, i64, i8, i8, i8, i64, i64, i32, i32, %"struct.icu_77::RegexCompile::RegexPatternChar", [100 x i16], i32, i32, i32, i8, %"class.icu_77::UnicodeString", i64, %"class.icu_77::UVector32", i32, i32, i32, i32, %"class.icu_77::UStack", %"class.icu_77::UStack", i32, ptr }
%"struct.icu_77::RegexCompile::RegexPatternChar" = type { i32, i8 }
%"class.icu_77::UnicodeString" = type { %"class.icu_77::Replaceable", %"union.icu_77::UnicodeString::StackBufferOrFields" }
%"class.icu_77::Replaceable" = type { %"class.icu_77::UObject" }
%"class.icu_77::UObject" = type { ptr }
%"union.icu_77::UnicodeString::StackBufferOrFields" = type { %struct.anon.0, [32 x i8] }
%struct.anon.0 = type { i16, i32, i32, ptr }
%"class.icu_77::UVector32" = type { %"class.icu_77::UObject", i32, i32, i32, ptr }
%"class.icu_77::UStack" = type { %"class.icu_77::UVector" }
%"class.icu_77::UVector" = type { %"class.icu_77::UObject", i32, i32, ptr, ptr, ptr }
%"class.icu_77::RegexPattern" = type { %"class.icu_77::UObject", ptr, ptr, i32, ptr, %"class.icu_77::UnicodeString", ptr, ptr, i32, i32, i32, i32, ptr, i32, i32, i32, ptr, i32, ptr, i8, ptr }
%struct.anon = type { i16, [27 x i16] }

@_ZTVN6icu_7712RegexCompileE = unnamed_addr constant { [4 x ptr] } { [4 x ptr] [ptr null, ptr @_ZTIN6icu_7712RegexCompileE, ptr @_ZN6icu_7712RegexCompileD1Ev, ptr @_ZN6icu_7712RegexCompileD0Ev] }, align 8
@_ZTVN6icu_777UObjectE = available_externally unnamed_addr constant { [5 x ptr] } { [5 x ptr] [ptr null, ptr @_ZTIN6icu_777UObjectE, ptr @_ZN6icu_777UObjectD1Ev, ptr @_ZN6icu_777UObjectD0Ev, ptr @_ZNK6icu_777UObject17getDynamicClassIDEv] }, align 8

; Function Attrs: inlinehint mustprogress nounwind uwtable
define linkonce_odr void @_ZN6icu_777UObjectC2Ev(ptr noundef nonnull align 8 dereferenceable(8) %0) unnamed_addr #2 comdat align 2 {
  %2 = alloca ptr, align 8
  store ptr %0, ptr %2, align 8, !tbaa !199
  %3 = load ptr, ptr %2, align 8
  store ptr getelementptr inbounds inrange(-16, 24) ({ [5 x ptr] }, ptr @_ZTVN6icu_777UObjectE, i32 0, i32 0, i32 2), ptr %3, align 8, !tbaa !27
  ret void
}

; Function Attrs: inlinehint mustprogress nounwind uwtable
define linkonce_odr void @_ZN6icu_7711ReplaceableC2Ev(ptr noundef nonnull align 8 dereferenceable(8) %0) unnamed_addr #2 comdat align 2 {
  %2 = alloca ptr, align 8
  store ptr %0, ptr %2, align 8, !tbaa !197
  %3 = load ptr, ptr %2, align 8
  call void @_ZN6icu_777UObjectC2Ev(ptr noundef nonnull align 8 dereferenceable(8) %3) #13
  store ptr getelementptr inbounds inrange(-16, 88) ({ [13 x ptr] }, ptr @_ZTVN6icu_7711ReplaceableE, i32 0, i32 0, i32 2), ptr %3, align 8, !tbaa !27
  ret void
}

; Function Attrs: inlinehint mustprogress nounwind uwtable
define internal noundef signext i8 @_ZL9U_FAILURE10UErrorCode(i32 noundef %0) #2 {
  %2 = alloca i32, align 4
  store i32 %0, ptr %2, align 4, !tbaa !15
  %3 = load i32, ptr %2, align 4, !tbaa !15
  %4 = icmp sgt i32 %3, 0
  %5 = zext i1 %4 to i8
  ret i8 %5
}

; Function Attrs: inlinehint mustprogress nounwind uwtable
define internal noundef signext i8 @_ZL9U_SUCCESS10UErrorCode(i32 noundef %0) #2 {
  %2 = alloca i32, align 4
  store i32 %0, ptr %2, align 4, !tbaa !15
  %3 = load i32, ptr %2, align 4, !tbaa !15
  %4 = icmp sle i32 %3, 0
  %5 = zext i1 %4 to i8
  ret i8 %5
}

; Function Attrs: inlinehint mustprogress uwtable
define linkonce_odr void @_ZN6icu_7713UnicodeStringC2Ev(ptr noundef nonnull align 8 dereferenceable(64) %0) unnamed_addr #3 comdat align 2 {
  %2 = alloca ptr, align 8
  store ptr %0, ptr %2, align 8, !tbaa !65
  %3 = load ptr, ptr %2, align 8
  call void @_ZN6icu_7711ReplaceableC2Ev(ptr noundef nonnull align 8 dereferenceable(8) %3)
  store ptr getelementptr inbounds inrange(-16, 88) ({ [13 x ptr] }, ptr @_ZTVN6icu_7713UnicodeStringE, i32 0, i32 0, i32 2), ptr %3, align 8, !tbaa !27
  %4 = getelementptr inbounds nuw %"class.icu_77::UnicodeString", ptr %3, i32 0, i32 1
  %5 = getelementptr inbounds nuw %struct.anon, ptr %4, i32 0, i32 0
  store i16 2, ptr %5, align 8, !tbaa !66
  ret void
}

; Function Attrs: mustprogress uwtable
define void @_ZN6icu_7712RegexCompileC2EPNS_12RegexPatternER10UErrorCode(ptr noundef nonnull align 8 dereferenceable(512) %0, ptr noundef %1, ptr noundef nonnull align 4 dereferenceable(4) %2) unnamed_addr #1 align 2 personality ptr @__gxx_personality_v0 {
  %4 = alloca ptr, align 8
  %5 = alloca ptr, align 8
  %6 = alloca ptr, align 8
  %7 = alloca ptr, align 8
  %8 = alloca i32, align 4
  store ptr %0, ptr %4, align 8, !tbaa !23
  store ptr %1, ptr %5, align 8, !tbaa !25
  store ptr %2, ptr %6, align 8, !tbaa !22
  %9 = load ptr, ptr %4, align 8
  store ptr getelementptr inbounds inrange(-16, 16) ({ [4 x ptr] }, ptr @_ZTVN6icu_7712RegexCompileE, i32 0, i32 0, i32 2), ptr %9, align 8, !tbaa !27
  %10 = getelementptr inbounds nuw %"class.icu_77::RegexCompile", ptr %9, i32 0, i32 18
  call void @_ZN6icu_7713UnicodeStringC2Ev(ptr noundef nonnull align 8 dereferenceable(64) %10)
  %11 = getelementptr inbounds nuw %"class.icu_77::RegexCompile", ptr %9, i32 0, i32 20
  %12 = load ptr, ptr %6, align 8, !tbaa !22
  invoke void @_ZN6icu_779UVector32C1ER10UErrorCode(ptr noundef nonnull align 8 dereferenceable(32) %11, ptr noundef nonnull align 4 dereferenceable(4) %12)
          to label %13 unwind label %61

13:                                               ; preds = %3
  %14 = getelementptr inbounds nuw %"class.icu_77::RegexCompile", ptr %9, i32 0, i32 25
  %15 = load ptr, ptr %6, align 8, !tbaa !22
  invoke void @_ZN6icu_776UStackC1EPFvPvEPFa8UElementS4_ER10UErrorCode(ptr noundef nonnull align 8 dereferenceable(40) %14, ptr noundef @uprv_deleteUObject_77, ptr noundef null, ptr noundef nonnull align 4 dereferenceable(4) %15)
          to label %16 unwind label %65

16:                                               ; preds = %13
  %17 = getelementptr inbounds nuw %"class.icu_77::RegexCompile", ptr %9, i32 0, i32 26
  %18 = load ptr, ptr %6, align 8, !tbaa !22
  invoke void @_ZN6icu_776UStackC1ER10UErrorCode(ptr noundef nonnull align 8 dereferenceable(40) %17, ptr noundef nonnull align 4 dereferenceable(4) %18)
          to label %19 unwind label %69

19:                                               ; preds = %16
  %20 = load ptr, ptr %6, align 8, !tbaa !22
  invoke void @_ZN6icu_7715RegexStaticSets11initGlobalsEP10UErrorCode(ptr noundef %20)
          to label %21 unwind label %73

21:                                               ; preds = %19
  %22 = load ptr, ptr %6, align 8, !tbaa !22
  %23 = getelementptr inbounds nuw %"class.icu_77::RegexCompile", ptr %9, i32 0, i32 1
  store ptr %22, ptr %23, align 8, !tbaa !29
  %24 = load ptr, ptr %5, align 8, !tbaa !25
  %25 = getelementptr inbounds nuw %"class.icu_77::RegexCompile", ptr %9, i32 0, i32 2
  store ptr %24, ptr %25, align 8, !tbaa !41
  %26 = getelementptr inbounds nuw %"class.icu_77::RegexCompile", ptr %9, i32 0, i32 4
  store i64 0, ptr %26, align 8, !tbaa !42
  %27 = getelementptr inbounds nuw %"class.icu_77::RegexCompile", ptr %9, i32 0, i32 10
  store i32 -1, ptr %27, align 8, !tbaa !43
  %28 = getelementptr inbounds nuw %"class.icu_77::RegexCompile", ptr %9, i32 0, i32 11
  store i32 -1, ptr %28, align 4, !tbaa !44
  %29 = getelementptr inbounds nuw %"class.icu_77::RegexCompile", ptr %9, i32 0, i32 8
  store i64 1, ptr %29, align 8, !tbaa !45
  %30 = getelementptr inbounds nuw %"class.icu_77::RegexCompile", ptr %9, i32 0, i32 9
  store i64 0, ptr %30, align 8, !tbaa !46
  %31 = getelementptr inbounds nuw %"class.icu_77::RegexCompile", ptr %9, i32 0, i32 5
  store i8 0, ptr %31, align 8, !tbaa !47
  %32 = getelementptr inbounds nuw %"class.icu_77::RegexCompile", ptr %9, i32 0, i32 6
  store i8 0, ptr %32, align 1, !tbaa !48
  %33 = getelementptr inbounds nuw %"class.icu_77::RegexCompile", ptr %9, i32 0, i32 2
  %34 = load ptr, ptr %33, align 8, !tbaa !41
  %35 = getelementptr inbounds nuw %"class.icu_77::RegexPattern", ptr %34, i32 0, i32 3
  %36 = load i32, ptr %35, align 8, !tbaa !49
  %37 = or i32 %36, -2147483648
  %38 = getelementptr inbounds nuw %"class.icu_77::RegexCompile", ptr %9, i32 0, i32 15
  store i32 %37, ptr %38, align 4, !tbaa !58
  %39 = getelementptr inbounds nuw %"class.icu_77::RegexCompile", ptr %9, i32 0, i32 7
  store i8 1, ptr %39, align 2, !tbaa !59
  %40 = getelementptr inbounds nuw %"class.icu_77::RegexCompile", ptr %9, i32 0, i32 21
  store i32 -1, ptr %40, align 8, !tbaa !60
  %41 = getelementptr inbounds nuw %"class.icu_77::RegexCompile", ptr %9, i32 0, i32 22
  store i32 -1, ptr %41, align 4, !tbaa !61
  %42 = getelementptr inbounds nuw %"class.icu_77::RegexCompile", ptr %9, i32 0, i32 28
  store ptr null, ptr %42, align 8, !tbaa !62
  %43 = getelementptr inbounds nuw %"class.icu_77::RegexCompile", ptr %9, i32 0, i32 27
  store i32 -1, ptr %43, align 8, !tbaa !63
  %44 = load ptr, ptr %6, align 8, !tbaa !22
  %45 = load i32, ptr %44, align 4, !tbaa !15
  %46 = invoke noundef signext i8 @_ZL9U_SUCCESS10UErrorCode(i32 noundef %45)
          to label %47 unwind label %73

47:                                               ; preds = %21
  %48 = icmp ne i8 %46, 0
  br i1 %48, label %49, label %77

49:                                               ; preds = %47
  %50 = load ptr, ptr %5, align 8, !tbaa !25
  %51 = getelementptr inbounds nuw %"class.icu_77::RegexPattern", ptr %50, i32 0, i32 8
  %52 = load i32, ptr %51, align 8, !tbaa !64
  %53 = invoke noundef signext i8 @_ZL9U_FAILURE10UErrorCode(i32 noundef %52)
          to label %54 unwind label %73

54:                                               ; preds = %49
  %55 = icmp ne i8 %53, 0
  br i1 %55, label %56, label %77

56:                                               ; preds = %54
  %57 = load ptr, ptr %5, align 8, !tbaa !25
  %58 = getelementptr inbounds nuw %"class.icu_77::RegexPattern", ptr %57, i32 0, i32 8
  %59 = load i32, ptr %58, align 8, !tbaa !64
  %60 = load ptr, ptr %6, align 8, !tbaa !22
  store i32 %59, ptr %60, align 4, !tbaa !15
  br label %77

61:                                               ; preds = %3
  %62 = landingpad { ptr, i32 }
          cleanup
  %63 = extractvalue { ptr, i32 } %62, 0
  store ptr %63, ptr %7, align 8
  %64 = extractvalue { ptr, i32 } %62, 1
  store i32 %64, ptr %8, align 4
  br label %80

65:                                               ; preds = %13
  %66 = landingpad { ptr, i32 }
          cleanup
  %67 = extractvalue { ptr, i32 } %66, 0
  store ptr %67, ptr %7, align 8
  %68 = extractvalue { ptr, i32 } %66, 1
  store i32 %68, ptr %8, align 4
  br label %79

69:                                               ; preds = %16
  %70 = landingpad { ptr, i32 }
          cleanup
  %71 = extractvalue { ptr, i32 } %70, 0
  store ptr %71, ptr %7, align 8
  %72 = extractvalue { ptr, i32 } %70, 1
  store i32 %72, ptr %8, align 4
  br label %78

73:                                               ; preds = %49, %21, %19
  %74 = landingpad { ptr, i32 }
          cleanup
  %75 = extractvalue { ptr, i32 } %74, 0
  store ptr %75, ptr %7, align 8
  %76 = extractvalue { ptr, i32 } %74, 1
  store i32 %76, ptr %8, align 4
  call void @_ZN6icu_776UStackD1Ev(ptr noundef nonnull align 8 dereferenceable(40) %17) #13
  br label %78

77:                                               ; preds = %56, %54, %47
  ret void

78:                                               ; preds = %73, %69
  call void @_ZN6icu_776UStackD1Ev(ptr noundef nonnull align 8 dereferenceable(40) %14) #13
  br label %79

79:                                               ; preds = %78, %65
  call void @_ZN6icu_779UVector32D1Ev(ptr noundef nonnull align 8 dereferenceable(32) %11) #13
  br label %80

80:                                               ; preds = %79, %61
  call void @_ZN6icu_7713UnicodeStringD1Ev(ptr noundef nonnull align 8 dereferenceable(64) %10) #13
  br label %81

81:                                               ; preds = %80
  %82 = load ptr, ptr %7, align 8
  %83 = load i32, ptr %8, align 4
  %84 = insertvalue { ptr, i32 } poison, ptr %82, 0
  %85 = insertvalue { ptr, i32 } %84, i32 %83, 1
  resume { ptr, i32 } %85
}