; Function Attrs: mustprogress uwtable
define void @_ZN6icu_7712RegexCompileC2EPNS_12RegexPatternER10UErrorCode(ptr noundef nonnull align 8 dereferenceable(512) initializes((0, 8), (296, 306)) %0, ptr noundef %1, ptr noundef nonnull align 4 dereferenceable(4) %2) unnamed_addr #1 align 2 personality ptr @__gxx_personality_v0 {
  store ptr getelementptr inbounds nuw inrange(-16, 16) (i8, ptr @_ZTVN6icu_7712RegexCompileE, i64 16), ptr %0, align 8, !tbaa !15
  %4 = getelementptr inbounds nuw i8, ptr %0, i64 296
  store ptr getelementptr inbounds nuw inrange(-16, 88) (i8, ptr @_ZTVN6icu_7713UnicodeStringE, i64 16), ptr %4, align 8, !tbaa !15
  %5 = getelementptr inbounds nuw i8, ptr %0, i64 304
  store i16 2, ptr %5, align 8, !tbaa !17
  %6 = getelementptr inbounds nuw i8, ptr %0, i64 368
  invoke void @_ZN6icu_779UVector32C1ER10UErrorCode(ptr noundef nonnull align 8 dereferenceable(32) %6, ptr noundef nonnull align 4 dereferenceable(4) %2)
          to label %7 unwind label %38

7:                                                ; preds = %3
  %8 = getelementptr inbounds nuw i8, ptr %0, i64 416
  invoke void @_ZN6icu_776UStackC1EPFvPvEPFa8UElementS4_ER10UErrorCode(ptr noundef nonnull align 8 dereferenceable(40) %8, ptr noundef nonnull @uprv_deleteUObject_77, ptr noundef null, ptr noundef nonnull align 4 dereferenceable(4) %2)
          to label %9 unwind label %40

9:                                                ; preds = %7
  %10 = getelementptr inbounds nuw i8, ptr %0, i64 456
  invoke void @_ZN6icu_776UStackC1ER10UErrorCode(ptr noundef nonnull align 8 dereferenceable(40) %10, ptr noundef nonnull align 4 dereferenceable(4) %2)
          to label %11 unwind label %42

11:                                               ; preds = %9
  invoke void @_ZN6icu_7715RegexStaticSets11initGlobalsEP10UErrorCode(ptr noundef nonnull %2)
          to label %12 unwind label %44

12:                                               ; preds = %11
  %13 = getelementptr inbounds nuw i8, ptr %0, i64 8
  store ptr %2, ptr %13, align 8, !tbaa !18
  %14 = getelementptr inbounds nuw i8, ptr %0, i64 16
  store ptr %1, ptr %14, align 8, !tbaa !33
  %15 = getelementptr inbounds nuw i8, ptr %0, i64 32
  store i64 0, ptr %15, align 8, !tbaa !34
  %16 = getelementptr inbounds nuw i8, ptr %0, i64 64
  store i32 -1, ptr %16, align 8, !tbaa !35
  %17 = getelementptr inbounds nuw i8, ptr %0, i64 68
  store i32 -1, ptr %17, align 4, !tbaa !36
  %18 = getelementptr inbounds nuw i8, ptr %0, i64 48
  store i64 1, ptr %18, align 8, !tbaa !37
  %19 = getelementptr inbounds nuw i8, ptr %0, i64 56
  store i64 0, ptr %19, align 8, !tbaa !38
  %20 = getelementptr inbounds nuw i8, ptr %0, i64 40
  store i8 0, ptr %20, align 8, !tbaa !39
  %21 = getelementptr inbounds nuw i8, ptr %0, i64 41
  store i8 0, ptr %21, align 1, !tbaa !40
  %22 = getelementptr inbounds nuw i8, ptr %1, i64 24
  %23 = load i32, ptr %22, align 8, !tbaa !41
  %24 = or i32 %23, -2147483648
  %25 = getelementptr inbounds nuw i8, ptr %0, i64 284
  store i32 %24, ptr %25, align 4, !tbaa !50
  %26 = getelementptr inbounds nuw i8, ptr %0, i64 42
  store i8 1, ptr %26, align 2, !tbaa !51
  %27 = getelementptr inbounds nuw i8, ptr %0, i64 400
  store i32 -1, ptr %27, align 8, !tbaa !52
  %28 = getelementptr inbounds nuw i8, ptr %0, i64 404
  store i32 -1, ptr %28, align 4, !tbaa !53
  %29 = getelementptr inbounds nuw i8, ptr %0, i64 504
  store ptr null, ptr %29, align 8, !tbaa !54
  %30 = getelementptr inbounds nuw i8, ptr %0, i64 496
  store i32 -1, ptr %30, align 8, !tbaa !55
  %31 = load i32, ptr %2, align 4, !tbaa !13
  %32 = icmp sgt i32 %31, 0
  br i1 %32, label %46, label %33

33:                                               ; preds = %12
  %34 = getelementptr inbounds nuw i8, ptr %1, i64 120
  %35 = load i32, ptr %34, align 8, !tbaa !56
  %36 = icmp slt i32 %35, 1
  br i1 %36, label %46, label %37

37:                                               ; preds = %33
  store i32 %35, ptr %2, align 4, !tbaa !13
  br label %46

38:                                               ; preds = %3
  %39 = landingpad { ptr, i32 }
          cleanup
  br label %49

40:                                               ; preds = %7
  %41 = landingpad { ptr, i32 }
          cleanup
  br label %48

42:                                               ; preds = %9
  %43 = landingpad { ptr, i32 }
          cleanup
  br label %47

44:                                               ; preds = %11
  %45 = landingpad { ptr, i32 }
          cleanup
  tail call void @_ZN6icu_776UStackD1Ev(ptr noundef nonnull align 8 dereferenceable(40) %10) #15
  br label %47

46:                                               ; preds = %37, %33, %12
  ret void

47:                                               ; preds = %44, %42
  %.pn = phi { ptr, i32 } [ %45, %44 ], [ %43, %42 ]
  tail call void @_ZN6icu_776UStackD1Ev(ptr noundef nonnull align 8 dereferenceable(40) %8) #15
  br label %48

48:                                               ; preds = %47, %40
  %.pn.pn = phi { ptr, i32 } [ %.pn, %47 ], [ %41, %40 ]
  tail call void @_ZN6icu_779UVector32D1Ev(ptr noundef nonnull align 8 dereferenceable(32) %6) #15
  br label %49

49:                                               ; preds = %48, %38
  %.pn.pn.pn = phi { ptr, i32 } [ %.pn.pn, %48 ], [ %39, %38 ]
  tail call void @_ZN6icu_7713UnicodeStringD1Ev(ptr noundef nonnull align 8 dereferenceable(64) %4) #15
  resume { ptr, i32 } %.pn.pn.pn
}